; Function Attrs: mustprogress uwtable
define void @_ZN8LightGBM7Dataset10FinishLoadEv(ptr noundef nonnull align 8 dereferenceable(864) %0) local_unnamed_addr #3 align 2 {
  %2 = getelementptr inbounds nuw i8, ptr %0, i64 584
  %3 = load i8, ptr %2, align 8, !tbaa !255, !range !95, !noundef !96
  %4 = trunc nuw i8 %3 to i1
  br i1 %4, label %18, label %5

5:                                                ; preds = %1
  %6 = getelementptr inbounds nuw i8, ptr %0, i64 432
  %7 = load i32, ptr %6, align 8, !tbaa !16
  %8 = icmp sgt i32 %7, 0
  br i1 %8, label %.lr.ph, label %.loopexit

.lr.ph:                                           ; preds = %5
  %9 = getelementptr inbounds nuw i8, ptr %0, i64 32
  br label %10

10:                                               ; preds = %.lr.ph, %10
  %indvars.iv = phi i64 [ 0, %.lr.ph ], [ %indvars.iv.next, %10 ]
  %11 = load ptr, ptr %9, align 8, !tbaa !105
  %12 = getelementptr inbounds nuw %"class.std::unique_ptr.74", ptr %11, i64 %indvars.iv
  %13 = load ptr, ptr %12, align 8, !tbaa !106
  tail call void @_ZN8LightGBM12FeatureGroup10FinishLoadEv(ptr noundef nonnull align 8 dereferenceable(96) %13)
  %indvars.iv.next = add nuw nsw i64 %indvars.iv, 1
  %14 = load i32, ptr %6, align 8, !tbaa !16
  %15 = sext i32 %14 to i64
  %16 = icmp slt i64 %indvars.iv.next, %15
  br i1 %16, label %10, label %.loopexit, !llvm.loop !506

.loopexit:                                        ; preds = %10, %5
  %17 = getelementptr inbounds nuw i8, ptr %0, i64 96
  tail call void @_ZN8LightGBM8Metadata10FinishLoadEv(ptr noundef nonnull align 8 dereferenceable(300) %17)
  store i8 1, ptr %2, align 8, !tbaa !255
  br label %18

18:                                               ; preds = %1, %.loopexit
  ret void
}